target datalayout = "e-m:e-p270:32:32-p271:32:32-p272:64:64-i64:64-i128:128-f80:128-n8:16:32:64-S128"
target triple = "x86_64-pc-linux-gnu"

%struct.MvcCoverStruct = type { i32, i32, i32, %struct.MvcListStruct, ptr, i32, ptr, ptr, ptr }
%struct.MvcListStruct = type { ptr, ptr, i32 }
%struct.MvcCubeStruct = type { ptr, i32, i32, [1 x i32] }

; Function Attrs: nounwind uwtable
define void @Mvc_CoverDivideByCube(ptr noundef %0, ptr noundef %1, ptr noundef %2, ptr noundef %3) #0 {
  %5 = alloca ptr, align 8
  %6 = alloca ptr, align 8
  %7 = alloca ptr, align 8
  %8 = alloca ptr, align 8
  %9 = alloca ptr, align 8
  %10 = alloca ptr, align 8
  %11 = alloca ptr, align 8
  %12 = alloca ptr, align 8
  %13 = alloca ptr, align 8
  %14 = alloca i32, align 4
  %15 = alloca i32, align 4
  %16 = alloca ptr, align 8
  %17 = alloca ptr, align 8
  store ptr %0, ptr %5, align 8
  store ptr %1, ptr %6, align 8
  store ptr %2, ptr %7, align 8
  store ptr %3, ptr %8, align 8
  %18 = load ptr, ptr %5, align 8
  %19 = getelementptr inbounds %struct.MvcCoverStruct, ptr %18, i32 0, i32 8
  %20 = load ptr, ptr %19, align 8
  %21 = load ptr, ptr %5, align 8
  %22 = getelementptr inbounds %struct.MvcCoverStruct, ptr %21, i32 0, i32 2
  %23 = load i32, ptr %22, align 8
  %24 = call ptr @Mvc_CoverAlloc(ptr noundef %20, i32 noundef %23)
  store ptr %24, ptr %9, align 8
  %25 = load ptr, ptr %5, align 8
  %26 = getelementptr inbounds %struct.MvcCoverStruct, ptr %25, i32 0, i32 8
  %27 = load ptr, ptr %26, align 8
  %28 = load ptr, ptr %5, align 8
  %29 = getelementptr inbounds %struct.MvcCoverStruct, ptr %28, i32 0, i32 2
  %30 = load i32, ptr %29, align 8
  %31 = call ptr @Mvc_CoverAlloc(ptr noundef %27, i32 noundef %30)
  store ptr %31, ptr %10, align 8
  %32 = load ptr, ptr %6, align 8
  %33 = call ptr @Mvc_CoverReadCubeHead(ptr noundef %32)
  store ptr %33, ptr %12, align 8
  %34 = load ptr, ptr %5, align 8
  %35 = getelementptr inbounds %struct.MvcCoverStruct, ptr %34, i32 0, i32 3
  %36 = getelementptr inbounds %struct.MvcListStruct, ptr %35, i32 0, i32 0
  %37 = load ptr, ptr %36, align 8
  store ptr %37, ptr %11, align 8
  br label %38

38:                                               ; preds = %216, %4
  %39 = load ptr, ptr %11, align 8
  %40 = icmp ne ptr %39, null
  br i1 %40, label %41, label %220

41:                                               ; preds = %38
  %42 = load ptr, ptr %12, align 8
  %43 = getelementptr inbounds %struct.MvcCubeStruct, ptr %42, i32 0, i32 3
  %44 = getelementptr inbounds [1 x i32], ptr %43, i64 0, i64 0
  %45 = load i32, ptr %44, align 8
  %46 = load ptr, ptr %11, align 8
  %47 = getelementptr inbounds %struct.MvcCubeStruct, ptr %46, i32 0, i32 3
  %48 = getelementptr inbounds [1 x i32], ptr %47, i64 0, i64 0
  %49 = load i32, ptr %48, align 8
  %50 = xor i32 %49, -1
  %51 = and i32 %45, %50
  %52 = icmp ne i32 %51, 0
  br i1 %52, label %65, label %53

53:                                               ; preds = %41
  %54 = load ptr, ptr %12, align 8
  %55 = getelementptr inbounds %struct.MvcCubeStruct, ptr %54, i32 0, i32 3
  %56 = getelementptr inbounds [1 x i32], ptr %55, i64 0, i64 1
  %57 = load i32, ptr %56, align 4
  %58 = load ptr, ptr %11, align 8
  %59 = getelementptr inbounds %struct.MvcCubeStruct, ptr %58, i32 0, i32 3
  %60 = getelementptr inbounds [1 x i32], ptr %59, i64 0, i64 1
  %61 = load i32, ptr %60, align 4
  %62 = xor i32 %61, -1
  %63 = and i32 %57, %62
  %64 = icmp ne i32 %63, 0
  br label %65

65:                                               ; preds = %53, %41
  %66 = phi i1 [ true, %41 ], [ %64, %53 ]
  %67 = zext i1 %66 to i32
  store i32 %67, ptr %14, align 4
  %68 = load i32, ptr %14, align 4
  %69 = icmp ne i32 %68, 0
  br i1 %69, label %185, label %70

70:                                               ; preds = %65
  %71 = load ptr, ptr %9, align 8
  %72 = call ptr @Mvc_CubeAlloc(ptr noundef %71)
  store ptr %72, ptr %13, align 8
  %73 = load ptr, ptr %11, align 8
  %74 = getelementptr inbounds %struct.MvcCubeStruct, ptr %73, i32 0, i32 1
  %75 = load i32, ptr %74, align 8
  %76 = and i32 %75, 16777215
  %77 = icmp eq i32 %76, 0
  br i1 %77, label %78, label %92

78:                                               ; preds = %70
  %79 = load ptr, ptr %11, align 8
  %80 = getelementptr inbounds %struct.MvcCubeStruct, ptr %79, i32 0, i32 3
  %81 = getelementptr inbounds [1 x i32], ptr %80, i64 0, i64 0
  %82 = load i32, ptr %81, align 8
  %83 = load ptr, ptr %12, align 8
  %84 = getelementptr inbounds %struct.MvcCubeStruct, ptr %83, i32 0, i32 3
  %85 = getelementptr inbounds [1 x i32], ptr %84, i64 0, i64 0
  %86 = load i32, ptr %85, align 8
  %87 = xor i32 %86, -1
  %88 = and i32 %82, %87
  %89 = load ptr, ptr %13, align 8
  %90 = getelementptr inbounds %struct.MvcCubeStruct, ptr %89, i32 0, i32 3
  %91 = getelementptr inbounds [1 x i32], ptr %90, i64 0, i64 0
  store i32 %88, ptr %91, align 8
  br label %158

92:                                               ; preds = %70
  %93 = load ptr, ptr %11, align 8
  %94 = getelementptr inbounds %struct.MvcCubeStruct, ptr %93, i32 0, i32 1
  %95 = load i32, ptr %94, align 8
  %96 = and i32 %95, 16777215
  %97 = icmp eq i32 %96, 1
  br i1 %97, label %98, label %125

98:                                               ; preds = %92
  %99 = load ptr, ptr %11, align 8
  %100 = getelementptr inbounds %struct.MvcCubeStruct, ptr %99, i32 0, i32 3
  %101 = getelementptr inbounds [1 x i32], ptr %100, i64 0, i64 0
  %102 = load i32, ptr %101, align 8
  %103 = load ptr, ptr %12, align 8
  %104 = getelementptr inbounds %struct.MvcCubeStruct, ptr %103, i32 0, i32 3
  %105 = getelementptr inbounds [1 x i32], ptr %104, i64 0, i64 0
  %106 = load i32, ptr %105, align 8
  %107 = xor i32 %106, -1
  %108 = and i32 %102, %107
  %109 = load ptr, ptr %13, align 8
  %110 = getelementptr inbounds %struct.MvcCubeStruct, ptr %109, i32 0, i32 3
  %111 = getelementptr inbounds [1 x i32], ptr %110, i64 0, i64 0
  store i32 %108, ptr %111, align 8
  %112 = load ptr, ptr %11, align 8
  %113 = getelementptr inbounds %struct.MvcCubeStruct, ptr %112, i32 0, i32 3
  %114 = getelementptr inbounds [1 x i32], ptr %113, i64 0, i64 1
  %115 = load i32, ptr %114, align 4
  %116 = load ptr, ptr %12, align 8
  %117 = getelementptr inbounds %struct.MvcCubeStruct, ptr %116, i32 0, i32 3
  %118 = getelementptr inbounds [1 x i32], ptr %117, i64 0, i64 1
  %119 = load i32, ptr %118, align 4
  %120 = xor i32 %119, -1
  %121 = and i32 %115, %120
  %122 = load ptr, ptr %13, align 8
  %123 = getelementptr inbounds %struct.MvcCubeStruct, ptr %122, i32 0, i32 3
  %124 = getelementptr inbounds [1 x i32], ptr %123, i64 0, i64 1
  store i32 %121, ptr %124, align 4
  br label %157

125:                                              ; preds = %92
  %126 = load ptr, ptr %11, align 8
  %127 = getelementptr inbounds %struct.MvcCubeStruct, ptr %126, i32 0, i32 1
  %128 = load i32, ptr %127, align 8
  %129 = and i32 %128, 16777215
  store i32 %129, ptr %15, align 4
  br label %130

130:                                              ; preds = %153, %125
  %131 = load i32, ptr %15, align 4
  %132 = icmp sge i32 %131, 0
  br i1 %132, label %133, label %156

133:                                              ; preds = %130
  %134 = load ptr, ptr %11, align 8
  %135 = getelementptr inbounds %struct.MvcCubeStruct, ptr %134, i32 0, i32 3
  %136 = load i32, ptr %15, align 4
  %137 = sext i32 %136 to i64
  %138 = getelementptr inbounds [1 x i32], ptr %135, i64 0, i64 %137
  %139 = load i32, ptr %138, align 4
  %140 = load ptr, ptr %12, align 8
  %141 = getelementptr inbounds %struct.MvcCubeStruct, ptr %140, i32 0, i32 3
  %142 = load i32, ptr %15, align 4
  %143 = sext i32 %142 to i64
  %144 = getelementptr inbounds [1 x i32], ptr %141, i64 0, i64 %143
  %145 = load i32, ptr %144, align 4
  %146 = xor i32 %145, -1
  %147 = and i32 %139, %146
  %148 = load ptr, ptr %13, align 8
  %149 = getelementptr inbounds %struct.MvcCubeStruct, ptr %148, i32 0, i32 3
  %150 = load i32, ptr %15, align 4
  %151 = sext i32 %150 to i64
  %152 = getelementptr inbounds [1 x i32], ptr %149, i64 0, i64 %151
  store i32 %147, ptr %152, align 4
  br label %153

153:                                              ; preds = %133
  %154 = load i32, ptr %15, align 4
  %155 = add nsw i32 %154, -1
  store i32 %155, ptr %15, align 4
  br label %130, !llvm.loop !14

156:                                              ; preds = %130
  br label %157

157:                                              ; preds = %156, %98
  br label %158

158:                                              ; preds = %157, %78
  %159 = load ptr, ptr %9, align 8
  %160 = getelementptr inbounds %struct.MvcCoverStruct, ptr %159, i32 0, i32 3
  store ptr %160, ptr %16, align 8
  %161 = load ptr, ptr %16, align 8
  %162 = getelementptr inbounds %struct.MvcListStruct, ptr %161, i32 0, i32 0
  %163 = load ptr, ptr %162, align 8
  %164 = icmp eq ptr %163, null
  br i1 %164, label %165, label %169

165:                                              ; preds = %158
  %166 = load ptr, ptr %13, align 8
  %167 = load ptr, ptr %16, align 8
  %168 = getelementptr inbounds %struct.MvcListStruct, ptr %167, i32 0, i32 0
  store ptr %166, ptr %168, align 8
  br label %175

169:                                              ; preds = %158
  %170 = load ptr, ptr %13, align 8
  %171 = load ptr, ptr %16, align 8
  %172 = getelementptr inbounds %struct.MvcListStruct, ptr %171, i32 0, i32 1
  %173 = load ptr, ptr %172, align 8
  %174 = getelementptr inbounds %struct.MvcCubeStruct, ptr %173, i32 0, i32 0
  store ptr %170, ptr %174, align 8
  br label %175

175:                                              ; preds = %169, %165
  %176 = load ptr, ptr %13, align 8
  %177 = load ptr, ptr %16, align 8
  %178 = getelementptr inbounds %struct.MvcListStruct, ptr %177, i32 0, i32 1
  store ptr %176, ptr %178, align 8
  %179 = load ptr, ptr %13, align 8
  %180 = getelementptr inbounds %struct.MvcCubeStruct, ptr %179, i32 0, i32 0
  store ptr null, ptr %180, align 8
  %181 = load ptr, ptr %16, align 8
  %182 = getelementptr inbounds %struct.MvcListStruct, ptr %181, i32 0, i32 2
  %183 = load i32, ptr %182, align 8
  %184 = add nsw i32 %183, 1
  store i32 %184, ptr %182, align 8
  br label %215

185:                                              ; preds = %65
  %186 = load ptr, ptr %10, align 8
  %187 = load ptr, ptr %11, align 8
  %188 = call ptr @Mvc_CubeDup(ptr noundef %186, ptr noundef %187)
  store ptr %188, ptr %13, align 8
  %189 = load ptr, ptr %10, align 8
  %190 = getelementptr inbounds %struct.MvcCoverStruct, ptr %189, i32 0, i32 3
  store ptr %190, ptr %17, align 8
  %191 = load ptr, ptr %17, align 8
  %192 = getelementptr inbounds %struct.MvcListStruct, ptr %191, i32 0, i32 0
  %193 = load ptr, ptr %192, align 8
  %194 = icmp eq ptr %193, null
  br i1 %194, label %195, label %199

195:                                              ; preds = %185
  %196 = load ptr, ptr %13, align 8
  %197 = load ptr, ptr %17, align 8
  %198 = getelementptr inbounds %struct.MvcListStruct, ptr %197, i32 0, i32 0
  store ptr %196, ptr %198, align 8
  br label %205

199:                                              ; preds = %185
  %200 = load ptr, ptr %13, align 8
  %201 = load ptr, ptr %17, align 8
  %202 = getelementptr inbounds %struct.MvcListStruct, ptr %201, i32 0, i32 1
  %203 = load ptr, ptr %202, align 8
  %204 = getelementptr inbounds %struct.MvcCubeStruct, ptr %203, i32 0, i32 0
  store ptr %200, ptr %204, align 8
  br label %205

205:                                              ; preds = %199, %195
  %206 = load ptr, ptr %13, align 8
  %207 = load ptr, ptr %17, align 8
  %208 = getelementptr inbounds %struct.MvcListStruct, ptr %207, i32 0, i32 1
  store ptr %206, ptr %208, align 8
  %209 = load ptr, ptr %13, align 8
  %210 = getelementptr inbounds %struct.MvcCubeStruct, ptr %209, i32 0, i32 0
  store ptr null, ptr %210, align 8
  %211 = load ptr, ptr %17, align 8
  %212 = getelementptr inbounds %struct.MvcListStruct, ptr %211, i32 0, i32 2
  %213 = load i32, ptr %212, align 8
  %214 = add nsw i32 %213, 1
  store i32 %214, ptr %212, align 8
  br label %215

215:                                              ; preds = %205, %175
  br label %216

216:                                              ; preds = %215
  %217 = load ptr, ptr %11, align 8
  %218 = getelementptr inbounds %struct.MvcCubeStruct, ptr %217, i32 0, i32 0
  %219 = load ptr, ptr %218, align 8
  store ptr %219, ptr %11, align 8
  br label %38, !llvm.loop !15

220:                                              ; preds = %38
  %221 = load ptr, ptr %10, align 8
  %222 = load ptr, ptr %8, align 8
  store ptr %221, ptr %222, align 8
  %223 = load ptr, ptr %9, align 8
  %224 = load ptr, ptr %7, align 8
  store ptr %223, ptr %224, align 8
  ret void
}