; Function Attrs: nounwind uwtable
define void @Mvc_CoverDivideByCube(ptr noundef readonly captures(none) %0, ptr noundef %1, ptr noundef writeonly captures(none) %2, ptr noundef writeonly captures(none) %3) local_unnamed_addr #0 {
  %5 = getelementptr inbounds nuw i8, ptr %0, i64 72
  %6 = load ptr, ptr %5, align 8
  %7 = getelementptr inbounds nuw i8, ptr %0, i64 8
  %8 = load i32, ptr %7, align 8
  %9 = tail call ptr @Mvc_CoverAlloc(ptr noundef %6, i32 noundef %8) #4
  %10 = load ptr, ptr %5, align 8
  %11 = load i32, ptr %7, align 8
  %12 = tail call ptr @Mvc_CoverAlloc(ptr noundef %10, i32 noundef %11) #4
  %13 = tail call ptr @Mvc_CoverReadCubeHead(ptr noundef %1) #4
  %14 = getelementptr inbounds nuw i8, ptr %0, i64 16
  %.064 = load ptr, ptr %14, align 8
  %.not65 = icmp eq ptr %.064, null
  br i1 %.not65, label %._crit_edge, label %.lr.ph

.lr.ph:                                           ; preds = %4
  %15 = getelementptr inbounds nuw i8, ptr %13, i64 16
  %16 = getelementptr inbounds nuw i8, ptr %13, i64 20
  %17 = getelementptr inbounds nuw i8, ptr %12, i64 16
  %18 = getelementptr inbounds nuw i8, ptr %12, i64 24
  %19 = getelementptr inbounds nuw i8, ptr %12, i64 32
  %20 = getelementptr inbounds nuw i8, ptr %9, i64 16
  %21 = getelementptr inbounds nuw i8, ptr %9, i64 24
  %22 = getelementptr inbounds nuw i8, ptr %9, i64 32
  br label %23

23:                                               ; preds = %.lr.ph, %85
  %.066 = phi ptr [ %.064, %.lr.ph ], [ %.0, %85 ]
  %24 = load i32, ptr %15, align 8
  %25 = getelementptr inbounds nuw i8, ptr %.066, i64 16
  %26 = load i32, ptr %25, align 8
  %27 = xor i32 %26, -1
  %28 = and i32 %24, %27
  %.not61 = icmp eq i32 %28, 0
  br i1 %.not61, label %29, label %.critedge

29:                                               ; preds = %23
  %30 = load i32, ptr %16, align 4
  %31 = getelementptr inbounds nuw i8, ptr %.066, i64 20
  %32 = load i32, ptr %31, align 4
  %33 = xor i32 %32, -1
  %34 = and i32 %30, %33
  %.not62 = icmp eq i32 %34, 0
  br i1 %.not62, label %35, label %.critedge

35:                                               ; preds = %29
  %36 = tail call ptr @Mvc_CubeAlloc(ptr noundef %9) #4
  %37 = getelementptr inbounds nuw i8, ptr %.066, i64 8
  %38 = load i32, ptr %37, align 8
  %39 = and i32 %38, 16777215
  switch i32 %39, label %.preheader [
    i32 0, label %43
    i32 1, label %49
  ]

.preheader:                                       ; preds = %35
  %40 = getelementptr inbounds nuw i8, ptr %36, i64 16
  %41 = and i32 %38, 16777215
  %42 = zext nneg i32 %41 to i64
  br label %60

43:                                               ; preds = %35
  %44 = load i32, ptr %25, align 8
  %45 = load i32, ptr %15, align 8
  %46 = xor i32 %45, -1
  %47 = and i32 %44, %46
  %48 = getelementptr inbounds nuw i8, ptr %36, i64 16
  store i32 %47, ptr %48, align 8
  br label %.loopexit

49:                                               ; preds = %35
  %50 = load i32, ptr %25, align 8
  %51 = load i32, ptr %15, align 8
  %52 = xor i32 %51, -1
  %53 = and i32 %50, %52
  %54 = getelementptr inbounds nuw i8, ptr %36, i64 16
  store i32 %53, ptr %54, align 8
  %55 = load i32, ptr %31, align 4
  %56 = load i32, ptr %16, align 4
  %57 = xor i32 %56, -1
  %58 = and i32 %55, %57
  %59 = getelementptr inbounds nuw i8, ptr %36, i64 20
  store i32 %58, ptr %59, align 4
  br label %.loopexit

60:                                               ; preds = %.preheader, %60
  %indvars.iv = phi i64 [ %42, %.preheader ], [ %indvars.iv.next, %60 ]
  %61 = getelementptr inbounds nuw [1 x i32], ptr %25, i64 0, i64 %indvars.iv
  %62 = load i32, ptr %61, align 4
  %63 = getelementptr inbounds nuw [1 x i32], ptr %15, i64 0, i64 %indvars.iv
  %64 = load i32, ptr %63, align 4
  %65 = xor i32 %64, -1
  %66 = and i32 %62, %65
  %67 = getelementptr inbounds nuw [1 x i32], ptr %40, i64 0, i64 %indvars.iv
  store i32 %66, ptr %67, align 4
  %indvars.iv.next = add nsw i64 %indvars.iv, -1
  %.not68 = icmp eq i64 %indvars.iv, 0
  br i1 %.not68, label %.loopexit, label %60, !llvm.loop !14

.loopexit:                                        ; preds = %60, %49, %43
  %68 = load ptr, ptr %20, align 8
  %69 = icmp eq ptr %68, null
  br i1 %69, label %70, label %71

70:                                               ; preds = %.loopexit
  store ptr %36, ptr %20, align 8
  br label %73

71:                                               ; preds = %.loopexit
  %72 = load ptr, ptr %21, align 8
  store ptr %36, ptr %72, align 8
  br label %73

73:                                               ; preds = %71, %70
  store ptr %36, ptr %21, align 8
  store ptr null, ptr %36, align 8
  %74 = load i32, ptr %22, align 8
  %75 = add nsw i32 %74, 1
  store i32 %75, ptr %22, align 8
  br label %85

.critedge:                                        ; preds = %23, %29
  %76 = tail call ptr @Mvc_CubeDup(ptr noundef %12, ptr noundef nonnull %.066) #4
  %77 = load ptr, ptr %17, align 8
  %78 = icmp eq ptr %77, null
  br i1 %78, label %79, label %80

79:                                               ; preds = %.critedge
  store ptr %76, ptr %17, align 8
  br label %82

80:                                               ; preds = %.critedge
  %81 = load ptr, ptr %18, align 8
  store ptr %76, ptr %81, align 8
  br label %82

82:                                               ; preds = %80, %79
  store ptr %76, ptr %18, align 8
  store ptr null, ptr %76, align 8
  %83 = load i32, ptr %19, align 8
  %84 = add nsw i32 %83, 1
  store i32 %84, ptr %19, align 8
  br label %85

85:                                               ; preds = %73, %82
  %.0 = load ptr, ptr %.066, align 8
  %.not = icmp eq ptr %.0, null
  br i1 %.not, label %._crit_edge, label %23, !llvm.loop !15

._crit_edge:                                      ; preds = %85, %4
  store ptr %12, ptr %3, align 8
  store ptr %9, ptr %2, align 8
  ret void
}